# SymbolsHelper-Confirmed: 3.4.0 alpha amd64 arm64 armel armhf hppa hurd-i386 i386 ia64 m68k mips64el mipsel powerpc ppc64 ppc64el riscv64 s390x sh4 sparc64 x32
libsigc-3.0.so.0 libsigc++-3.0-0 #MINVER#
* Build-Depends-Package: libsigc++-3.0-dev
 _ZN4sigc10connection10disconnectEv@Base 2.2.0
 _ZN4sigc10connection5blockEb@Base 2.2.0
 _ZN4sigc10connection7unblockEv@Base 2.2.0
 _ZN4sigc10connection8set_slotERKNS_8internal12weak_raw_ptrINS_9slot_baseEEE@Base 3.2.0
 _ZN4sigc10connectionC1ERKS0_@Base 2.2.0
 _ZN4sigc10connectionC1ERNS_9slot_baseE@Base 2.2.0
 _ZN4sigc10connectionC1Ev@Base 2.2.0
 _ZN4sigc10connectionC2ERKS0_@Base 2.2.0
 _ZN4sigc10connectionC2ERNS_9slot_baseE@Base 2.2.0
 _ZN4sigc10connectionC2Ev@Base 2.2.0
 _ZN4sigc10connectionD1Ev@Base 2.2.0
 _ZN4sigc10connectionD2Ev@Base 2.2.0
 _ZN4sigc10connectionaSERKS0_@Base 2.2.0
 _ZN4sigc11signal_base13connect_firstEONS_9slot_baseE@Base 3.6.0
 _ZN4sigc11signal_base13connect_firstERKNS_9slot_baseE@Base 3.6.0
 _ZN4sigc11signal_base5blockEb@Base 2.4.0
 _ZN4sigc11signal_base5clearEv@Base 2.2.0
 _ZN4sigc11signal_base6insertESt14_List_iteratorINS_9slot_baseEEOS2_@Base 2.8.0
 _ZN4sigc11signal_base6insertESt14_List_iteratorINS_9slot_baseEERKS2_@Base 2.2.0
 _ZN4sigc11signal_base7connectEONS_9slot_baseE@Base 2.8.0
 _ZN4sigc11signal_base7connectERKNS_9slot_baseE@Base 2.2.0
 _ZN4sigc11signal_base7unblockEv@Base 2.4.0
 _ZN4sigc11signal_baseC1EOS0_@Base 2.6.1
 _ZN4sigc11signal_baseC1ERKS0_@Base 2.2.0
 _ZN4sigc11signal_baseC1Ev@Base 2.2.0
 _ZN4sigc11signal_baseC2EOS0_@Base 2.6.1
 _ZN4sigc11signal_baseC2ERKS0_@Base 2.2.0
 _ZN4sigc11signal_baseC2Ev@Base 2.2.0
 _ZN4sigc11signal_baseD1Ev@Base 2.2.0
 _ZN4sigc11signal_baseD2Ev@Base 2.2.0
 _ZN4sigc11signal_baseaSEOS0_@Base 2.6.1
 _ZN4sigc11signal_baseaSERKS0_@Base 2.2.0
 _ZN4sigc17scoped_connection10disconnectEv@Base 3.6.0
 _ZN4sigc17scoped_connection5blockEb@Base 3.6.0
 _ZN4sigc17scoped_connection7releaseEv@Base 3.6.0
 _ZN4sigc17scoped_connection7unblockEv@Base 3.6.0
 _ZN4sigc17scoped_connectionC1ENS_10connectionE@Base 3.6.0
 _ZN4sigc17scoped_connectionC1EOS0_@Base 3.6.0
 _ZN4sigc17scoped_connectionC2ENS_10connectionE@Base 3.6.0
 _ZN4sigc17scoped_connectionC2EOS0_@Base 3.6.0
 _ZN4sigc17scoped_connectionD1Ev@Base 3.6.0
 _ZN4sigc17scoped_connectionD2Ev@Base 3.6.0
 _ZN4sigc17scoped_connectionaSENS_10connectionE@Base 3.6.0
 _ZN4sigc17scoped_connectionaSEOS0_@Base 3.6.0
 _ZN4sigc4swapERNS_17scoped_connectionES1_@Base 3.6.0
 _ZN4sigc8internal11signal_impl13connect_firstEONS_9slot_baseE@Base 3.6.0
 _ZN4sigc8internal11signal_impl13connect_firstERKNS_9slot_baseE@Base 3.6.0
 _ZN4sigc8internal11signal_impl24add_notification_to_iterERKSt14_List_iteratorINS_9slot_baseEE@Base 3.2.0
 _ZN4sigc8internal11signal_impl40notify_self_and_iter_of_invalidated_slotEPNS_10notifiableE@Base 3.2.0
 _ZN4sigc8internal11signal_impl5blockEb@Base 2.4.0
 _ZN4sigc8internal11signal_impl5clearEv@Base 2.2.0
 _ZN4sigc8internal11signal_impl5sweepEv@Base 2.2.0
 _ZN4sigc8internal11signal_impl6insertESt14_List_iteratorINS_9slot_baseEEOS3_@Base 2.8.0
 _ZN4sigc8internal11signal_impl6insertESt14_List_iteratorINS_9slot_baseEERKS3_@Base 2.2.0
 _ZN4sigc8internal11signal_impl7connectEONS_9slot_baseE@Base 2.8.0
 _ZN4sigc8internal11signal_impl7connectERKNS_9slot_baseE@Base 2.2.0
 _ZN4sigc8internal11signal_implC1Ev@Base 2.2.0
 _ZN4sigc8internal11signal_implC2Ev@Base 2.2.0
 _ZN4sigc8internal11signal_implD1Ev@Base 3.2.0
 _ZN4sigc8internal11signal_implD2Ev@Base 3.2.0
 _ZN4sigc8internal12weak_raw_ptrINS0_8slot_repEE25notify_object_invalidatedEPNS_10notifiableE@Base 3.2.0
 _ZN4sigc8internal12weak_raw_ptrINS_9slot_baseEE25notify_object_invalidatedEPNS_10notifiableE@Base 3.2.0
 _ZN4sigc8internal23trackable_callback_list12add_callbackEPNS_10notifiableEPFvS3_E@Base 3.2.0
 _ZN4sigc8internal23trackable_callback_list15remove_callbackEPNS_10notifiableE@Base 3.2.0
 _ZN4sigc8internal23trackable_callback_list5clearEv@Base 2.2.0
 _ZN4sigc8internal23trackable_callback_listD1Ev@Base 2.2.0
 _ZN4sigc8internal23trackable_callback_listD2Ev@Base 2.2.0
 _ZN4sigc8internal8slot_rep10disconnectEv@Base 2.2.0
 _ZN4sigc8internal8slot_rep27notify_slot_rep_invalidatedEPNS_10notifiableE@Base 3.2.0
 _ZN4sigc9slot_base10disconnectEv@Base 2.2.0
 _ZN4sigc9slot_base21delete_rep_with_checkEv@Base 2.6.1
 _ZN4sigc9slot_base5blockEb@Base 2.2.0
 _ZN4sigc9slot_base7unblockEv@Base 2.2.0
 _ZN4sigc9slot_baseC1EOS0_@Base 2.6.1
 _ZN4sigc9slot_baseC1EPNS_8internal8slot_repE@Base 2.2.0
 _ZN4sigc9slot_baseC1ERKS0_@Base 2.2.0
 _ZN4sigc9slot_baseC1Ev@Base 2.2.0
 _ZN4sigc9slot_baseC2EOS0_@Base 2.6.1
 _ZN4sigc9slot_baseC2EPNS_8internal8slot_repE@Base 2.2.0
 _ZN4sigc9slot_baseC2ERKS0_@Base 2.2.0
 _ZN4sigc9slot_baseC2Ev@Base 2.2.0
 _ZN4sigc9slot_baseD1Ev@Base 2.2.0
 _ZN4sigc9slot_baseD2Ev@Base 2.2.0
 _ZN4sigc9slot_baseaSEOS0_@Base 2.6.1
 _ZN4sigc9slot_baseaSERKS0_@Base 2.2.0
 _ZN4sigc9trackable16notify_callbacksEv@Base 2.2.0
 _ZN4sigc9trackableC1EOS0_@Base 2.6.1
 _ZN4sigc9trackableC1ERKS0_@Base 2.2.0
 _ZN4sigc9trackableC1Ev@Base 2.2.0
 _ZN4sigc9trackableC2EOS0_@Base 2.6.1
 _ZN4sigc9trackableC2ERKS0_@Base 2.2.0
 _ZN4sigc9trackableC2Ev@Base 2.2.0
 _ZN4sigc9trackableD1Ev@Base 2.2.0
 _ZN4sigc9trackableD2Ev@Base 2.2.0
 _ZN4sigc9trackableaSEOS0_@Base 2.6.1
 _ZN4sigc9trackableaSERKS0_@Base 2.2.0
 _ZNK4sigc10connection5emptyEv@Base 2.2.0
 _ZNK4sigc10connection7blockedEv@Base 2.2.0
 _ZNK4sigc10connection9connectedEv@Base 2.2.0
 _ZNK4sigc10connectioncvbEv@Base 3.2.0
 _ZNK4sigc11signal_base4implEv@Base 2.2.0
 _ZNK4sigc11signal_base4sizeEv@Base 2.2.0
 _ZNK4sigc11signal_base7blockedEv@Base 2.4.0
 _ZNK4sigc17scoped_connection5emptyEv@Base 3.6.0
 _ZNK4sigc17scoped_connection7blockedEv@Base 3.6.0
 _ZNK4sigc17scoped_connection9connectedEv@Base 3.6.0
 _ZNK4sigc17scoped_connectioncvbEv@Base 3.6.0
 _ZNK4sigc8internal11signal_impl4sizeEv@Base 2.2.0
 _ZNK4sigc8internal11signal_impl7blockedEv@Base 2.4.0
 _ZNK4sigc9slot_base10set_parentEPNS_10notifiableEPFvS2_E@Base 3.2.0
 _ZNK4sigc9slot_base27add_destroy_notify_callbackEPNS_10notifiableEPFvS2_E@Base 3.2.0
 _ZNK4sigc9slot_base30remove_destroy_notify_callbackEPNS_10notifiableE@Base 3.2.0
 _ZNK4sigc9slot_basecvbEv@Base 2.2.0
 _ZNK4sigc9trackable13callback_listEv@Base 2.2.0
 _ZNK4sigc9trackable27add_destroy_notify_callbackEPNS_10notifiableEPFvS2_E@Base 3.2.0
 _ZNK4sigc9trackable30remove_destroy_notify_callbackEPNS_10notifiableE@Base 3.2.0
 _ZTIN4sigc10notifiableE@Base 3.2.0
 _ZTIN4sigc8internal8slot_repE@Base 3.2.0
 _ZTIN4sigc9trackableE@Base 3.2.0
 (optional=templist|arch=armel riscv64)_ZTIN9__gnu_cxx24__concurrence_lock_errorE@Base 3.2.0
 (optional=templist|arch=armel riscv64)_ZTIN9__gnu_cxx26__concurrence_unlock_errorE@Base 3.2.0
 (optional=templist|arch=armel riscv64)_ZTIN9__gnu_cxx7__mutexE@Base 3.2.0
 (optional=templist|arch=armel riscv64)_ZTISt11_Mutex_baseILN9__gnu_cxx12_Lock_policyE1EE@Base 3.2.0
 (optional=templist|arch=!armel !riscv64)_ZTISt11_Mutex_baseILN9__gnu_cxx12_Lock_policyE2EE@Base 3.2.0
 (optional=templist|arch=armel riscv64)_ZTISt16_Sp_counted_baseILN9__gnu_cxx12_Lock_policyE1EE@Base 3.2.0
 (optional=templist|arch=!armel !riscv64)_ZTISt16_Sp_counted_baseILN9__gnu_cxx12_Lock_policyE2EE@Base 3.2.0
 (optional=templist|arch=armel armhf)_ZTISt19_Sp_make_shared_tag@Base 3.2.0
 _ZTSN4sigc10notifiableE@Base 3.2.0
 _ZTSN4sigc8internal8slot_repE@Base 3.2.0
 _ZTSN4sigc9trackableE@Base 3.2.0
 (optional=templist|arch=armel riscv64)_ZTSN9__gnu_cxx24__concurrence_lock_errorE@Base 3.2.0
 (optional=templist|arch=armel riscv64)_ZTSN9__gnu_cxx26__concurrence_unlock_errorE@Base 3.2.0
 (optional=templist|arch=armel riscv64)_ZTSN9__gnu_cxx7__mutexE@Base 3.2.0
 (optional=templist|arch=armel riscv64)_ZTSSt11_Mutex_baseILN9__gnu_cxx12_Lock_policyE1EE@Base 3.2.0
 (optional=templist|arch=!armel !riscv64)_ZTSSt11_Mutex_baseILN9__gnu_cxx12_Lock_policyE2EE@Base 3.2.0
 (optional=templist|arch=armel riscv64)_ZTSSt16_Sp_counted_baseILN9__gnu_cxx12_Lock_policyE1EE@Base 3.2.0
 (optional=templist|arch=!armel !riscv64)_ZTSSt16_Sp_counted_baseILN9__gnu_cxx12_Lock_policyE2EE@Base 3.2.0
 _ZTSSt19_Sp_make_shared_tag@Base 3.2.0
 (optional=templist|arch=armel riscv64)_ZTSSt23_Sp_counted_ptr_inplaceIN4sigc8internal11signal_implESaIvELN9__gnu_cxx12_Lock_policyE1EE@Base 3.4.0
 (optional=templist|arch=!armel !riscv64)_ZTSSt23_Sp_counted_ptr_inplaceIN4sigc8internal11signal_implESaIvELN9__gnu_cxx12_Lock_policyE2EE@Base 3.4.0
 _ZZNSt19_Sp_make_shared_tag5_S_tiEvE5__tag@Base 3.2.0
